target datalayout = "e-m:e-p270:32:32-p271:32:32-p272:64:64-i64:64-i128:128-f80:128-n8:16:32:64-S128"
target triple = "x86_64-pc-linux-gnu"

%struct._php_random_algo = type { i64, ptr, ptr, ptr, ptr }
%struct._zend_random_globals = type { ptr, i8, ptr, i8, i32 }

@php_random_algo_mt19937 = external constant %struct._php_random_algo, align 8
@random_globals = global %struct._zend_random_globals zeroinitializer, align 8

; Function Attrs: nounwind uwtable
define ptr @php_random_default_status() #0 {
  %1 = alloca ptr, align 8
  %2 = load ptr, ptr getelementptr inbounds (%struct._zend_random_globals, ptr @random_globals, i32 0, i32 2), align 8
  store ptr %2, ptr %1, align 8
  %3 = load i8, ptr getelementptr inbounds (%struct._zend_random_globals, ptr @random_globals, i32 0, i32 3), align 8
  %4 = trunc i8 %3 to i1
  br i1 %4, label %7, label %5

5:                                                ; preds = %0
  %6 = load ptr, ptr %1, align 8
  call void @php_random_mt19937_seed_default(ptr noundef %6)
  store i8 1, ptr getelementptr inbounds (%struct._zend_random_globals, ptr @random_globals, i32 0, i32 3), align 8
  br label %7

7:                                                ; preds = %5, %0
  %8 = load ptr, ptr %1, align 8
  ret ptr %8
}

; Function Attrs: nounwind uwtable
define i64 @php_mt_rand_range(i64 noundef %0, i64 noundef %1) #0 {
  %3 = alloca i64, align 8
  %4 = alloca i64, align 8
  store i64 %0, ptr %3, align 8
  store i64 %1, ptr %4, align 8
  %5 = load ptr, ptr getelementptr inbounds (%struct._php_random_algo, ptr @php_random_algo_mt19937, i32 0, i32 2), align 8
  %6 = call ptr @php_random_default_status()
  %7 = load i64, ptr %3, align 8
  %8 = load i64, ptr %4, align 8
  %9 = call i64 %5(ptr noundef %6, i64 noundef %7, i64 noundef %8)
  ret i64 %9
}