; Function Attrs: nounwind uwtable
define i64 @php_mt_rand_range(i64 noundef %0, i64 noundef %1) local_unnamed_addr #0 {
  %3 = load ptr, ptr getelementptr inbounds (%struct._php_random_algo, ptr @php_random_algo_mt19937, i64 0, i32 2), align 8
  %4 = load ptr, ptr getelementptr inbounds (%struct._zend_random_globals, ptr @random_globals, i64 0, i32 2), align 8
  %5 = load i8, ptr getelementptr inbounds (%struct._zend_random_globals, ptr @random_globals, i64 0, i32 3), align 8
  %6 = and i8 %5, 1
  %.not.i = icmp eq i8 %6, 0
  br i1 %.not.i, label %7, label %php_random_default_status.exit

7:                                                ; preds = %2
  tail call void @php_random_mt19937_seed_default(ptr noundef %4) #13
  store i8 1, ptr getelementptr inbounds (%struct._zend_random_globals, ptr @random_globals, i64 0, i32 3), align 8
  br label %php_random_default_status.exit

php_random_default_status.exit:                   ; preds = %2, %7
  %8 = tail call i64 %3(ptr noundef %4, i64 noundef %0, i64 noundef %1) #13
  ret i64 %8
}